target datalayout = "e-m:e-p270:32:32-p271:32:32-p272:64:64-i64:64-i128:128-f80:128-n8:16:32:64-S128"
target triple = "x86_64-unknown-linux-gnu"

%"class.hermes::vm::StorageProvider" = type { ptr, i64, i64, i64 }

; Function Attrs: mustprogress nounwind uwtable
define hidden noundef i64 @_ZNK6hermes2vm15StorageProvider13numLiveAllocsEv(ptr noundef nonnull align 8 dereferenceable(32) %this) #0 align 2 {
entry:
  %this.addr = alloca ptr, align 8
  store ptr %this, ptr %this.addr, align 8
  %this1 = load ptr, ptr %this.addr, align 8
  %numSucceededAllocs_ = getelementptr inbounds %"class.hermes::vm::StorageProvider", ptr %this1, i32 0, i32 1
  %0 = load i64, ptr %numSucceededAllocs_, align 8
  %numDeletedAllocs_ = getelementptr inbounds %"class.hermes::vm::StorageProvider", ptr %this1, i32 0, i32 3
  %1 = load i64, ptr %numDeletedAllocs_, align 8
  %sub = sub i64 %0, %1
  ret i64 %sub
}