; Function Attrs: mustprogress nofree norecurse nosync nounwind willreturn memory(argmem: read) uwtable
define hidden noundef i64 @_ZNK6hermes2vm15StorageProvider13numLiveAllocsEv(ptr nocapture noundef nonnull readonly align 8 dereferenceable(32) %this) local_unnamed_addr #6 align 2 {
entry:
  %numSucceededAllocs_ = getelementptr inbounds i8, ptr %this, i64 8
  %0 = load i64, ptr %numSucceededAllocs_, align 8
  %numDeletedAllocs_ = getelementptr inbounds i8, ptr %this, i64 24
  %1 = load i64, ptr %numDeletedAllocs_, align 8
  %sub = sub i64 %0, %1
  ret i64 %sub
}